target datalayout = "e-m:e-p270:32:32-p271:32:32-p272:64:64-i64:64-i128:128-f80:128-n8:16:32:64-S128"
target triple = "x86_64-pc-linux-gnu"

%struct._object = type { %union.anon.26, ptr }
%union.anon.26 = type { i64 }
%struct.PyVarObject = type { %struct._object, i64 }
%struct.PyCompilerFlags = type { i32, i32 }
%struct._PyCompiler = type { ptr, ptr, %struct._PyFutureFeatures, %struct.PyCompilerFlags, i32, i32, ptr, ptr, ptr, i8 }
%struct._PyFutureFeatures = type { i32, %struct._Py_SourceLocation }
%struct._Py_SourceLocation = type { i32, i32, i32, i32 }
%struct.PyListObject = type { %struct.PyVarObject, ptr, i64 }
%struct.compiler_unit = type { ptr, i32, ptr, ptr, ptr, ptr, i32, i32, [21 x %struct._PyCompile_FBlockInfo], %struct._PyCompile_CodeUnitMetadata }
%struct._PyCompile_FBlockInfo = type { i32, %struct._PyJumpTargetLabel, %struct._Py_SourceLocation, %struct._PyJumpTargetLabel, ptr }
%struct._PyJumpTargetLabel = type { i32 }
%struct._PyCompile_CodeUnitMetadata = type { ptr, ptr, ptr, ptr, ptr, ptr, ptr, ptr, i64, i64, i64, i32 }
%struct.anon.27 = type { i32, i32 }

@.str.1 = private unnamed_addr constant [24 x i8] c"compile.c compiler unit\00", align 1
@.str.2 = private unnamed_addr constant [62 x i8] c"Exception ignored while removing the last compiler stack item\00", align 1
@.str.3 = private unnamed_addr constant [62 x i8] c"Exception ignored while appending nested instruction sequence\00", align 1

; Function Attrs: alwaysinline nounwind uwtable
define internal i32 @_Py_IsImmortal(ptr noundef %0) #4 {
  %2 = alloca ptr, align 8
  store ptr %0, ptr %2, align 8, !tbaa !32
  %3 = load ptr, ptr %2, align 8, !tbaa !32
  %4 = getelementptr inbounds nuw %struct._object, ptr %3, i32 0, i32 0
  %5 = getelementptr inbounds nuw %struct.anon.27, ptr %4, i32 0, i32 0
  %6 = load i32, ptr %5, align 8, !tbaa !11
  %7 = icmp slt i32 %6, 0
  %8 = zext i1 %7 to i32
  ret i32 %8
}

; Function Attrs: alwaysinline nounwind uwtable
define internal void @Py_DECREF(ptr noundef %0) #4 {
  %2 = alloca ptr, align 8
  store ptr %0, ptr %2, align 8, !tbaa !32
  %3 = load ptr, ptr %2, align 8, !tbaa !32
  %4 = call i32 @_Py_IsImmortal(ptr noundef %3)
  %5 = icmp ne i32 %4, 0
  br i1 %5, label %6, label %7

6:                                                ; preds = %1
  br label %16

7:                                                ; preds = %1
  %8 = load ptr, ptr %2, align 8, !tbaa !32
  %9 = getelementptr inbounds nuw %struct._object, ptr %8, i32 0, i32 0
  %10 = getelementptr inbounds nuw %struct.anon.27, ptr %9, i32 0, i32 0
  %11 = load i32, ptr %10, align 8, !tbaa !11
  %12 = add i32 %11, -1
  store i32 %12, ptr %10, align 8, !tbaa !11
  %13 = icmp eq i32 %12, 0
  br i1 %13, label %14, label %16

14:                                               ; preds = %7
  %15 = load ptr, ptr %2, align 8, !tbaa !32
  call void @_Py_Dealloc(ptr noundef %15)
  br label %16

16:                                               ; preds = %6, %14, %7
  ret void
}

; Function Attrs: inlinehint nounwind uwtable
define internal i64 @Py_SIZE(ptr noundef %0) #3 {
  %2 = alloca ptr, align 8
  store ptr %0, ptr %2, align 8, !tbaa !32
  %3 = load ptr, ptr %2, align 8, !tbaa !32
  %4 = getelementptr inbounds nuw %struct.PyVarObject, ptr %3, i32 0, i32 1
  %5 = load i64, ptr %4, align 8, !tbaa !152
  ret i64 %5
}

; Function Attrs: inlinehint nounwind uwtable
define internal void @Py_XDECREF(ptr noundef %0) #3 {
  %2 = alloca ptr, align 8
  store ptr %0, ptr %2, align 8, !tbaa !32
  %3 = load ptr, ptr %2, align 8, !tbaa !32
  %4 = icmp ne ptr %3, null
  br i1 %4, label %5, label %7

5:                                                ; preds = %1
  %6 = load ptr, ptr %2, align 8, !tbaa !32
  call void @Py_DECREF(ptr noundef %6)
  br label %7

7:                                                ; preds = %5, %1
  ret void
}

; Function Attrs: inlinehint nounwind uwtable
define internal i64 @PyList_GET_SIZE(ptr noundef %0) #3 {
  %2 = alloca ptr, align 8
  %3 = alloca ptr, align 8
  store ptr %0, ptr %2, align 8, !tbaa !32
  call void @llvm.lifetime.start.p0(i64 8, ptr %3) #8
  %4 = load ptr, ptr %2, align 8, !tbaa !32
  store ptr %4, ptr %3, align 8, !tbaa !42
  %5 = load ptr, ptr %3, align 8, !tbaa !42
  %6 = call i64 @Py_SIZE(ptr noundef %5)
  call void @llvm.lifetime.end.p0(i64 8, ptr %3) #8
  ret i64 %6
}

; Function Attrs: alwaysinline nounwind uwtable
define internal void @Py_INCREF(ptr noundef %0) #4 {
  %2 = alloca ptr, align 8
  %3 = alloca i32, align 4
  %4 = alloca i32, align 4
  store ptr %0, ptr %2, align 8, !tbaa !32
  call void @llvm.lifetime.start.p0(i64 4, ptr %3) #8
  %5 = load ptr, ptr %2, align 8, !tbaa !32
  %6 = getelementptr inbounds nuw %struct._object, ptr %5, i32 0, i32 0
  %7 = getelementptr inbounds nuw %struct.anon.27, ptr %6, i32 0, i32 0
  %8 = load i32, ptr %7, align 8, !tbaa !11
  store i32 %8, ptr %3, align 4, !tbaa !50
  %9 = load i32, ptr %3, align 4, !tbaa !50
  %10 = icmp slt i32 %9, 0
  br i1 %10, label %11, label %12

11:                                               ; preds = %1
  store i32 1, ptr %4, align 4
  br label %18

12:                                               ; preds = %1
  %13 = load i32, ptr %3, align 4, !tbaa !50
  %14 = add i32 %13, 1
  %15 = load ptr, ptr %2, align 8, !tbaa !32
  %16 = getelementptr inbounds nuw %struct._object, ptr %15, i32 0, i32 0
  %17 = getelementptr inbounds nuw %struct.anon.27, ptr %16, i32 0, i32 0
  store i32 %14, ptr %17, align 8, !tbaa !11
  store i32 0, ptr %4, align 4
  br label %18

18:                                               ; preds = %12, %11
  call void @llvm.lifetime.end.p0(i64 4, ptr %3) #8
  %19 = load i32, ptr %4, align 4
  switch i32 %19, label %21 [
    i32 0, label %20
    i32 1, label %20
  ]

20:                                               ; preds = %18, %18
  ret void

21:                                               ; preds = %18
  unreachable
}

; Function Attrs: nounwind uwtable
define hidden void @_PyCompile_ExitScope(ptr noundef %0) #0 {
  %2 = alloca ptr, align 8
  %3 = alloca ptr, align 8
  %4 = alloca ptr, align 8
  %5 = alloca i64, align 8
  %6 = alloca ptr, align 8
  store ptr %0, ptr %2, align 8, !tbaa !4
  call void @llvm.lifetime.start.p0(i64 8, ptr %3) #8
  %7 = call ptr @PyErr_GetRaisedException()
  store ptr %7, ptr %3, align 8, !tbaa !32
  call void @llvm.lifetime.start.p0(i64 8, ptr %4) #8
  store ptr null, ptr %4, align 8, !tbaa !75
  %8 = load ptr, ptr %2, align 8, !tbaa !4
  %9 = getelementptr inbounds nuw %struct._PyCompiler, ptr %8, i32 0, i32 9
  %10 = load i8, ptr %9, align 8, !tbaa !83, !range !84, !noundef !85
  %11 = trunc i8 %10 to i1
  br i1 %11, label %12, label %19

12:                                               ; preds = %1
  %13 = load ptr, ptr %2, align 8, !tbaa !4
  %14 = getelementptr inbounds nuw %struct._PyCompiler, ptr %13, i32 0, i32 7
  %15 = load ptr, ptr %14, align 8, !tbaa !48
  %16 = getelementptr inbounds nuw %struct.compiler_unit, ptr %15, i32 0, i32 5
  %17 = load ptr, ptr %16, align 8, !tbaa !71
  store ptr %17, ptr %4, align 8, !tbaa !75
  %18 = load ptr, ptr %4, align 8, !tbaa !75
  call void @Py_INCREF(ptr noundef %18)
  br label %19

19:                                               ; preds = %12, %1
  %20 = load ptr, ptr %2, align 8, !tbaa !4
  %21 = getelementptr inbounds nuw %struct._PyCompiler, ptr %20, i32 0, i32 7
  %22 = load ptr, ptr %21, align 8, !tbaa !48
  call void @compiler_unit_free(ptr noundef %22)
  call void @llvm.lifetime.start.p0(i64 8, ptr %5) #8
  %23 = load ptr, ptr %2, align 8, !tbaa !4
  %24 = getelementptr inbounds nuw %struct._PyCompiler, ptr %23, i32 0, i32 8
  %25 = load ptr, ptr %24, align 8, !tbaa !15
  %26 = call i64 @PyList_GET_SIZE(ptr noundef %25)
  %27 = sub i64 %26, 1
  store i64 %27, ptr %5, align 8, !tbaa !24
  %28 = load i64, ptr %5, align 8, !tbaa !24
  %29 = icmp sge i64 %28, 0
  br i1 %29, label %30, label %65

30:                                               ; preds = %19
  call void @llvm.lifetime.start.p0(i64 8, ptr %6) #8
  %31 = load ptr, ptr %2, align 8, !tbaa !4
  %32 = getelementptr inbounds nuw %struct._PyCompiler, ptr %31, i32 0, i32 8
  %33 = load ptr, ptr %32, align 8, !tbaa !15
  %34 = getelementptr inbounds nuw %struct.PyListObject, ptr %33, i32 0, i32 1
  %35 = load ptr, ptr %34, align 8, !tbaa !26
  %36 = load i64, ptr %5, align 8, !tbaa !24
  %37 = getelementptr ptr, ptr %35, i64 %36
  %38 = load ptr, ptr %37, align 8, !tbaa !32
  store ptr %38, ptr %6, align 8, !tbaa !32
  %39 = load ptr, ptr %6, align 8, !tbaa !32
  %40 = call ptr @PyCapsule_GetPointer(ptr noundef %39, ptr noundef @.str.1)
  %41 = load ptr, ptr %2, align 8, !tbaa !4
  %42 = getelementptr inbounds nuw %struct._PyCompiler, ptr %41, i32 0, i32 7
  store ptr %40, ptr %42, align 8, !tbaa !48
  %43 = load ptr, ptr %2, align 8, !tbaa !4
  %44 = getelementptr inbounds nuw %struct._PyCompiler, ptr %43, i32 0, i32 8
  %45 = load ptr, ptr %44, align 8, !tbaa !15
  %46 = load i64, ptr %5, align 8, !tbaa !24
  %47 = call i32 @PySequence_DelItem(ptr noundef %45, i64 noundef %46)
  %48 = icmp slt i32 %47, 0
  br i1 %48, label %49, label %50

49:                                               ; preds = %30
  call void (ptr, ...) @PyErr_FormatUnraisable(ptr noundef @.str.2)
  br label %50

50:                                               ; preds = %49, %30
  %51 = load ptr, ptr %4, align 8, !tbaa !75
  %52 = icmp ne ptr %51, null
  br i1 %52, label %53, label %64

53:                                               ; preds = %50
  %54 = load ptr, ptr %2, align 8, !tbaa !4
  %55 = getelementptr inbounds nuw %struct._PyCompiler, ptr %54, i32 0, i32 7
  %56 = load ptr, ptr %55, align 8, !tbaa !48
  %57 = getelementptr inbounds nuw %struct.compiler_unit, ptr %56, i32 0, i32 5
  %58 = load ptr, ptr %57, align 8, !tbaa !71
  %59 = load ptr, ptr %4, align 8, !tbaa !75
  %60 = call i32 @_PyInstructionSequence_AddNested(ptr noundef %58, ptr noundef %59)
  %61 = icmp slt i32 %60, 0
  br i1 %61, label %62, label %63

62:                                               ; preds = %53
  call void (ptr, ...) @PyErr_FormatUnraisable(ptr noundef @.str.3)
  br label %63

63:                                               ; preds = %62, %53
  br label %64

64:                                               ; preds = %63, %50
  call void @llvm.lifetime.end.p0(i64 8, ptr %6) #8
  br label %68

65:                                               ; preds = %19
  %66 = load ptr, ptr %2, align 8, !tbaa !4
  %67 = getelementptr inbounds nuw %struct._PyCompiler, ptr %66, i32 0, i32 7
  store ptr null, ptr %67, align 8, !tbaa !48
  br label %68

68:                                               ; preds = %65, %64
  %69 = load ptr, ptr %4, align 8, !tbaa !75
  call void @Py_XDECREF(ptr noundef %69)
  %70 = load ptr, ptr %3, align 8, !tbaa !32
  call void @PyErr_SetRaisedException(ptr noundef %70)
  call void @llvm.lifetime.end.p0(i64 8, ptr %5) #8
  call void @llvm.lifetime.end.p0(i64 8, ptr %4) #8
  call void @llvm.lifetime.end.p0(i64 8, ptr %3) #8
  ret void
}