; Function Attrs: nounwind uwtable
define hidden void @_PyCompile_ExitScope(ptr noundef captures(none) %0) local_unnamed_addr #0 {
  %2 = tail call ptr @PyErr_GetRaisedException() #11
  %3 = getelementptr inbounds nuw i8, ptr %0, i64 80
  %4 = load i8, ptr %3, align 8, !tbaa !70, !range !71, !noundef !72
  %5 = trunc nuw i8 %4 to i1
  br i1 %5, label %6, label %Py_INCREF.exit

6:                                                ; preds = %1
  %7 = getelementptr inbounds nuw i8, ptr %0, i64 64
  %8 = load ptr, ptr %7, align 8, !tbaa !42
  %9 = getelementptr inbounds nuw i8, ptr %8, i64 40
  %10 = load ptr, ptr %9, align 8, !tbaa !64
  %11 = load i32, ptr %10, align 8, !tbaa !4
  %12 = icmp slt i32 %11, 0
  br i1 %12, label %Py_INCREF.exit, label %13

13:                                               ; preds = %6
  %14 = add nuw i32 %11, 1
  store i32 %14, ptr %10, align 8, !tbaa !4
  br label %Py_INCREF.exit

Py_INCREF.exit:                                   ; preds = %13, %6, %1
  %.0 = phi ptr [ null, %1 ], [ %10, %6 ], [ %10, %13 ]
  %15 = getelementptr inbounds nuw i8, ptr %0, i64 64
  %16 = load ptr, ptr %15, align 8, !tbaa !42
  tail call fastcc void @compiler_unit_free(ptr noundef %16)
  %17 = getelementptr inbounds nuw i8, ptr %0, i64 72
  %18 = load ptr, ptr %17, align 8, !tbaa !10
  %19 = getelementptr i8, ptr %18, i64 16
  %.val = load i64, ptr %19, align 8, !tbaa !20
  %20 = add i64 %.val, -1
  %21 = icmp sgt i64 %20, -1
  br i1 %21, label %22, label %40

22:                                               ; preds = %Py_INCREF.exit
  %23 = getelementptr inbounds nuw i8, ptr %18, i64 24
  %24 = load ptr, ptr %23, align 8, !tbaa !25
  %25 = getelementptr ptr, ptr %24, i64 %20
  %26 = load ptr, ptr %25, align 8, !tbaa !28
  %27 = tail call ptr @PyCapsule_GetPointer(ptr noundef %26, ptr noundef nonnull @.str.1) #11
  store ptr %27, ptr %15, align 8, !tbaa !42
  %28 = load ptr, ptr %17, align 8, !tbaa !10
  %29 = tail call i32 @PySequence_DelItem(ptr noundef %28, i64 noundef %20) #11
  %30 = icmp slt i32 %29, 0
  br i1 %30, label %31, label %32

31:                                               ; preds = %22
  tail call void (ptr, ...) @PyErr_FormatUnraisable(ptr noundef nonnull @.str.2) #11
  br label %32

32:                                               ; preds = %31, %22
  %.not = icmp eq ptr %.0, null
  br i1 %.not, label %Py_XDECREF.exit, label %33

33:                                               ; preds = %32
  %34 = load ptr, ptr %15, align 8, !tbaa !42
  %35 = getelementptr inbounds nuw i8, ptr %34, i64 40
  %36 = load ptr, ptr %35, align 8, !tbaa !64
  %37 = tail call i32 @_PyInstructionSequence_AddNested(ptr noundef %36, ptr noundef nonnull %.0) #11
  %38 = icmp slt i32 %37, 0
  br i1 %38, label %39, label %.thread

39:                                               ; preds = %33
  tail call void (ptr, ...) @PyErr_FormatUnraisable(ptr noundef nonnull @.str.3) #11
  br label %.thread

40:                                               ; preds = %Py_INCREF.exit
  store ptr null, ptr %15, align 8, !tbaa !42
  %.not.i = icmp eq ptr %.0, null
  br i1 %.not.i, label %Py_XDECREF.exit, label %.thread

.thread:                                          ; preds = %33, %39, %40
  %41 = load i32, ptr %.0, align 8, !tbaa !4
  %.not.i.i = icmp sgt i32 %41, -1
  br i1 %.not.i.i, label %42, label %Py_XDECREF.exit

42:                                               ; preds = %.thread
  %43 = add nsw i32 %41, -1
  store i32 %43, ptr %.0, align 8, !tbaa !4
  %44 = icmp eq i32 %43, 0
  br i1 %44, label %45, label %Py_XDECREF.exit

45:                                               ; preds = %42
  tail call void @_Py_Dealloc(ptr noundef nonnull %.0) #11
  br label %Py_XDECREF.exit

Py_XDECREF.exit:                                  ; preds = %32, %40, %.thread, %42, %45
  tail call void @PyErr_SetRaisedException(ptr noundef %2) #11
  ret void
}